ccopy_reg
_reconstructor
p0
(canomalyframework.parameters
Pars
p1
c__builtin__
dict
p2
(dp3
S'paths'
p4
g0
(canomalyframework.local_pyutils
dotdictify
p5
g2
(dp6
S'folders'
p7
g0
(g5
g2
(dp8
S'predict_directories'
p9
S''
p10
sS'output_directory'
p11
S'/home/danny/workspace/anomalyframework_python/data/tmp/2018_04_11/14_29_58_first_run_1/output'
p12
sS'path_to_tmp'
p13
S'/home/danny/workspace/anomalyframework_python/data/tmp/2018_04_11/14_29_58_first_run_1/'
p14
sS'path_to_results'
p15
S'/home/danny/workspace/anomalyframework_python/data/results/2018_04_11/14_29_58/'
p16
stp17
Rp18
sS'files'
p19
g0
(g5
g2
(dp20
S'infile_features'
p21
S'/home/danny/Downloads/first_run.train'
p22
sS'verbose_fname'
p23
S'/home/danny/workspace/anomalyframework_python/data/tmp/2018_04_11/14_29_58_first_run_1/0.verbose'
p24
sS'shuffle_idxs'
p25
g10
sS'runinfo_fname'
p26
S'/home/danny/workspace/anomalyframework_python/data/tmp/2018_04_11/14_29_58_first_run_1/0.runinfo'
p27
sS'done_file'
p28
S'/home/danny/workspace/anomalyframework_python/data/tmp/2018_04_11/14_29_58_first_run_1/0.done'
p29
sS'shufflenames_libsvm'
p30
g10
sS'an_file'
p31
S'/home/danny/workspace/anomalyframework_python/data/tmp/2018_04_11/14_29_58_first_run_1/a_res.mat'
p32
stp33
Rp34
stp35
Rp36
sS'system'
p37
g0
(g5
g2
(dp38
S'num_threads'
p39
I8
sS'anomalyframework_root'
p40
S'/home/danny/workspace/anomalyframework_python'
p41
sS'path_to_trainpredict_relative'
p42
S'build/anomalyframework/cpp/score_shuffle'
p43
stp44
Rp45
sS'algorithm'
p46
g0
(g5
g2
(dp47
S'discriminability'
p48
g0
(g5
g2
(dp49
S'window_stride'
p50
NsS'window_size'
p51
I100
sS'max_buffer_size'
p52
I-1
sS'solver_num'
p53
I0
sS'alpha'
p54
F1e-30
sS'lambd'
p55
F1000.0
sS'window_stride_multiplier'
p56
F0.5
stp57
Rp58
sS'permutations'
p59
g0
(g5
g2
(dp60
S'n_shuffles'
p61
I10
sS'shuffle_size'
p62
I1
stp63
Rp64
sS'aggregation'
p65
g0
(g5
g2
(dp66
S'average_over_splits'
p67
S'mean'
p68
stp69
Rp70
stp71
Rp72
sS'tags'
p73
g0
(g5
g2
(dp74
S'processId'
p75
I1
sS'results_name'
p76
g10
sS'datestring'
p77
S'2018_04_11'
p78
sS'timestring'
p79
S'14_29_58'
p80
sS'name'
p81
S'first_run'
p82
stp83
Rp84
stp85
Rp86
.